target datalayout = "e-m:e-p270:32:32-p271:32:32-p272:64:64-i64:64-i128:128-f80:128-n8:16:32:64-S128"
target triple = "x86_64-pc-linux-gnu"

%"struct.(anonymous namespace)::FunctionInfo" = type <{ %"class.std::map", %"class.std::map.106", i32, [4 x i8] }>
%"class.std::map" = type { %"class.std::_Rb_tree" }
%"class.std::_Rb_tree" = type { %"struct.std::_Rb_tree<const llvm::AllocaInst *, std::pair<const llvm::AllocaInst *const, (anonymous namespace)::UseInfo<llvm::GlobalValue>>, std::_Select1st<std::pair<const llvm::AllocaInst *const, (anonymous namespace)::UseInfo<llvm::GlobalValue>>>, std::less<const llvm::AllocaInst *>>::_Rb_tree_impl" }
%"struct.std::_Rb_tree<const llvm::AllocaInst *, std::pair<const llvm::AllocaInst *const, (anonymous namespace)::UseInfo<llvm::GlobalValue>>, std::_Select1st<std::pair<const llvm::AllocaInst *const, (anonymous namespace)::UseInfo<llvm::GlobalValue>>>, std::less<const llvm::AllocaInst *>>::_Rb_tree_impl" = type { [8 x i8], %"struct.std::_Rb_tree_header" }
%"struct.std::_Rb_tree_header" = type { %"struct.std::_Rb_tree_node_base", i64 }
%"struct.std::_Rb_tree_node_base" = type { i32, ptr, ptr, ptr }
%"class.std::map.106" = type { %"class.std::_Rb_tree.107" }
%"class.std::_Rb_tree.107" = type { %"struct.std::_Rb_tree<unsigned int, std::pair<const unsigned int, (anonymous namespace)::UseInfo<llvm::GlobalValue>>, std::_Select1st<std::pair<const unsigned int, (anonymous namespace)::UseInfo<llvm::GlobalValue>>>, std::less<unsigned int>>::_Rb_tree_impl" }
%"struct.std::_Rb_tree<unsigned int, std::pair<const unsigned int, (anonymous namespace)::UseInfo<llvm::GlobalValue>>, std::_Select1st<std::pair<const unsigned int, (anonymous namespace)::UseInfo<llvm::GlobalValue>>>, std::less<unsigned int>>::_Rb_tree_impl" = type { [8 x i8], %"struct.std::_Rb_tree_header" }
%"class.std::_Rb_tree.124" = type { %"struct.std::_Rb_tree<const llvm::GlobalValue *, std::pair<const llvm::GlobalValue *const, (anonymous namespace)::FunctionInfo<llvm::GlobalValue>>, std::_Select1st<std::pair<const llvm::GlobalValue *const, (anonymous namespace)::FunctionInfo<llvm::GlobalValue>>>, std::less<const llvm::GlobalValue *>>::_Rb_tree_impl" }
%"struct.std::_Rb_tree<const llvm::GlobalValue *, std::pair<const llvm::GlobalValue *const, (anonymous namespace)::FunctionInfo<llvm::GlobalValue>>, std::_Select1st<std::pair<const llvm::GlobalValue *const, (anonymous namespace)::FunctionInfo<llvm::GlobalValue>>>, std::less<const llvm::GlobalValue *>>::_Rb_tree_impl" = type { [8 x i8], %"struct.std::_Rb_tree_header" }
%"struct.std::pair.228" = type { ptr, %"struct.(anonymous namespace)::FunctionInfo" }
%"struct.std::_Rb_tree_node.649" = type { %"struct.std::_Rb_tree_node_base", %"struct.__gnu_cxx::__aligned_membuf.650" }
%"struct.__gnu_cxx::__aligned_membuf.650" = type { [112 x i8] }

; Function Attrs: mustprogress nounwind uwtable
define internal void @_ZNSt15__new_allocatorISt13_Rb_tree_nodeISt4pairIKPKN4llvm10AllocaInstEN12_GLOBAL__N_17UseInfoINS2_11GlobalValueEEEEEED2Ev(ptr noundef nonnull align 1 dereferenceable(1) %0) unnamed_addr #1 align 2 {
  %2 = alloca ptr, align 8
  store ptr %0, ptr %2, align 8
  ret void
}

; Function Attrs: mustprogress nounwind uwtable
define internal void @_ZNSt15__new_allocatorISt13_Rb_tree_nodeISt4pairIKjN12_GLOBAL__N_17UseInfoIN4llvm11GlobalValueEEEEEED2Ev(ptr noundef nonnull align 1 dereferenceable(1) %0) unnamed_addr #1 align 2 {
  %2 = alloca ptr, align 8
  store ptr %0, ptr %2, align 8
  ret void
}

; Function Attrs: mustprogress nounwind uwtable
define internal void @_ZNSaISt13_Rb_tree_nodeISt4pairIKPKN4llvm10AllocaInstEN12_GLOBAL__N_17UseInfoINS1_11GlobalValueEEEEEED2Ev(ptr noundef nonnull align 1 dereferenceable(1) %0) unnamed_addr #1 align 2 {
  %2 = alloca ptr, align 8
  store ptr %0, ptr %2, align 8
  %3 = load ptr, ptr %2, align 8
  call void @_ZNSt15__new_allocatorISt13_Rb_tree_nodeISt4pairIKPKN4llvm10AllocaInstEN12_GLOBAL__N_17UseInfoINS2_11GlobalValueEEEEEED2Ev(ptr noundef nonnull align 1 dereferenceable(1) %3) #2
  ret void
}

; Function Attrs: mustprogress nounwind uwtable
define internal noundef ptr @_ZNKSt8_Rb_treeIPKN4llvm10AllocaInstESt4pairIKS3_N12_GLOBAL__N_17UseInfoINS0_11GlobalValueEEEESt10_Select1stISA_ESt4lessIS3_ESaISA_EE9_M_mbeginEv(ptr noundef nonnull align 8 dereferenceable(48) %0) #1 align 2 {
  %2 = alloca ptr, align 8
  store ptr %0, ptr %2, align 8
  %3 = load ptr, ptr %2, align 8
  %4 = getelementptr inbounds nuw %"class.std::_Rb_tree", ptr %3, i32 0, i32 0
  %5 = getelementptr inbounds i8, ptr %4, i64 8
  %6 = getelementptr inbounds nuw %"struct.std::_Rb_tree_header", ptr %5, i32 0, i32 0
  %7 = getelementptr inbounds nuw %"struct.std::_Rb_tree_node_base", ptr %6, i32 0, i32 1
  %8 = load ptr, ptr %7, align 8
  ret ptr %8
}

; Function Attrs: mustprogress nounwind uwtable
define internal void @_ZNSaISt13_Rb_tree_nodeISt4pairIKjN12_GLOBAL__N_17UseInfoIN4llvm11GlobalValueEEEEEED2Ev(ptr noundef nonnull align 1 dereferenceable(1) %0) unnamed_addr #1 align 2 {
  %2 = alloca ptr, align 8
  store ptr %0, ptr %2, align 8
  %3 = load ptr, ptr %2, align 8
  call void @_ZNSt15__new_allocatorISt13_Rb_tree_nodeISt4pairIKjN12_GLOBAL__N_17UseInfoIN4llvm11GlobalValueEEEEEED2Ev(ptr noundef nonnull align 1 dereferenceable(1) %3) #2
  ret void
}

; Function Attrs: mustprogress nounwind uwtable
define internal noundef ptr @_ZNKSt8_Rb_treeIjSt4pairIKjN12_GLOBAL__N_17UseInfoIN4llvm11GlobalValueEEEESt10_Select1stIS7_ESt4lessIjESaIS7_EE9_M_mbeginEv(ptr noundef nonnull align 8 dereferenceable(48) %0) #1 align 2 {
  %2 = alloca ptr, align 8
  store ptr %0, ptr %2, align 8
  %3 = load ptr, ptr %2, align 8
  %4 = getelementptr inbounds nuw %"class.std::_Rb_tree.107", ptr %3, i32 0, i32 0
  %5 = getelementptr inbounds i8, ptr %4, i64 8
  %6 = getelementptr inbounds nuw %"struct.std::_Rb_tree_header", ptr %5, i32 0, i32 0
  %7 = getelementptr inbounds nuw %"struct.std::_Rb_tree_node_base", ptr %6, i32 0, i32 1
  %8 = load ptr, ptr %7, align 8
  ret ptr %8
}

; Function Attrs: mustprogress nounwind uwtable
define internal void @_ZNSt8_Rb_treeIPKN4llvm10AllocaInstESt4pairIKS3_N12_GLOBAL__N_17UseInfoINS0_11GlobalValueEEEESt10_Select1stISA_ESt4lessIS3_ESaISA_EE13_Rb_tree_implISE_Lb1EED2Ev(ptr noundef nonnull align 8 dereferenceable(48) %0) unnamed_addr #1 align 2 {
  %2 = alloca ptr, align 8
  store ptr %0, ptr %2, align 8
  %3 = load ptr, ptr %2, align 8
  call void @_ZNSaISt13_Rb_tree_nodeISt4pairIKPKN4llvm10AllocaInstEN12_GLOBAL__N_17UseInfoINS1_11GlobalValueEEEEEED2Ev(ptr noundef nonnull align 1 dereferenceable(1) %3) #2
  ret void
}

; Function Attrs: mustprogress nounwind uwtable
define internal noundef ptr @_ZNSt8_Rb_treeIPKN4llvm10AllocaInstESt4pairIKS3_N12_GLOBAL__N_17UseInfoINS0_11GlobalValueEEEESt10_Select1stISA_ESt4lessIS3_ESaISA_EE8_M_beginEv(ptr noundef nonnull align 8 dereferenceable(48) %0) #1 align 2 {
  %2 = alloca ptr, align 8
  store ptr %0, ptr %2, align 8
  %3 = load ptr, ptr %2, align 8
  %4 = call noundef ptr @_ZNKSt8_Rb_treeIPKN4llvm10AllocaInstESt4pairIKS3_N12_GLOBAL__N_17UseInfoINS0_11GlobalValueEEEESt10_Select1stISA_ESt4lessIS3_ESaISA_EE9_M_mbeginEv(ptr noundef nonnull align 8 dereferenceable(48) %3) #2
  ret ptr %4
}

; Function Attrs: mustprogress nounwind uwtable
define internal void @_ZNSt8_Rb_treeIjSt4pairIKjN12_GLOBAL__N_17UseInfoIN4llvm11GlobalValueEEEESt10_Select1stIS7_ESt4lessIjESaIS7_EE13_Rb_tree_implISB_Lb1EED2Ev(ptr noundef nonnull align 8 dereferenceable(48) %0) unnamed_addr #1 align 2 {
  %2 = alloca ptr, align 8
  store ptr %0, ptr %2, align 8
  %3 = load ptr, ptr %2, align 8
  call void @_ZNSaISt13_Rb_tree_nodeISt4pairIKjN12_GLOBAL__N_17UseInfoIN4llvm11GlobalValueEEEEEED2Ev(ptr noundef nonnull align 1 dereferenceable(1) %3) #2
  ret void
}

; Function Attrs: mustprogress nounwind uwtable
define internal noundef ptr @_ZNSt8_Rb_treeIjSt4pairIKjN12_GLOBAL__N_17UseInfoIN4llvm11GlobalValueEEEESt10_Select1stIS7_ESt4lessIjESaIS7_EE8_M_beginEv(ptr noundef nonnull align 8 dereferenceable(48) %0) #1 align 2 {
  %2 = alloca ptr, align 8
  store ptr %0, ptr %2, align 8
  %3 = load ptr, ptr %2, align 8
  %4 = call noundef ptr @_ZNKSt8_Rb_treeIjSt4pairIKjN12_GLOBAL__N_17UseInfoIN4llvm11GlobalValueEEEESt10_Select1stIS7_ESt4lessIjESaIS7_EE9_M_mbeginEv(ptr noundef nonnull align 8 dereferenceable(48) %3) #2
  ret ptr %4
}

; Function Attrs: mustprogress nounwind uwtable
define internal void @_ZNSt8_Rb_treeIPKN4llvm10AllocaInstESt4pairIKS3_N12_GLOBAL__N_17UseInfoINS0_11GlobalValueEEEESt10_Select1stISA_ESt4lessIS3_ESaISA_EED2Ev(ptr noundef nonnull align 8 dereferenceable(48) %0) unnamed_addr #1 align 2 {
  %2 = alloca ptr, align 8
  store ptr %0, ptr %2, align 8
  %3 = load ptr, ptr %2, align 8
  %4 = call noundef ptr @_ZNSt8_Rb_treeIPKN4llvm10AllocaInstESt4pairIKS3_N12_GLOBAL__N_17UseInfoINS0_11GlobalValueEEEESt10_Select1stISA_ESt4lessIS3_ESaISA_EE8_M_beginEv(ptr noundef nonnull align 8 dereferenceable(48) %3) #2
  call void @_ZNSt8_Rb_treeIPKN4llvm10AllocaInstESt4pairIKS3_N12_GLOBAL__N_17UseInfoINS0_11GlobalValueEEEESt10_Select1stISA_ESt4lessIS3_ESaISA_EE8_M_eraseEPSt13_Rb_tree_nodeISA_E(ptr noundef nonnull align 8 dereferenceable(48) %3, ptr noundef %4)
  %5 = getelementptr inbounds nuw %"class.std::_Rb_tree", ptr %3, i32 0, i32 0
  call void @_ZNSt8_Rb_treeIPKN4llvm10AllocaInstESt4pairIKS3_N12_GLOBAL__N_17UseInfoINS0_11GlobalValueEEEESt10_Select1stISA_ESt4lessIS3_ESaISA_EE13_Rb_tree_implISE_Lb1EED2Ev(ptr noundef nonnull align 8 dereferenceable(48) %5) #2
  ret void
}

; Function Attrs: mustprogress nounwind uwtable
define internal void @_ZNSt8_Rb_treeIjSt4pairIKjN12_GLOBAL__N_17UseInfoIN4llvm11GlobalValueEEEESt10_Select1stIS7_ESt4lessIjESaIS7_EED2Ev(ptr noundef nonnull align 8 dereferenceable(48) %0) unnamed_addr #1 align 2 {
  %2 = alloca ptr, align 8
  store ptr %0, ptr %2, align 8
  %3 = load ptr, ptr %2, align 8
  %4 = call noundef ptr @_ZNSt8_Rb_treeIjSt4pairIKjN12_GLOBAL__N_17UseInfoIN4llvm11GlobalValueEEEESt10_Select1stIS7_ESt4lessIjESaIS7_EE8_M_beginEv(ptr noundef nonnull align 8 dereferenceable(48) %3) #2
  call void @_ZNSt8_Rb_treeIjSt4pairIKjN12_GLOBAL__N_17UseInfoIN4llvm11GlobalValueEEEESt10_Select1stIS7_ESt4lessIjESaIS7_EE8_M_eraseEPSt13_Rb_tree_nodeIS7_E(ptr noundef nonnull align 8 dereferenceable(48) %3, ptr noundef %4)
  %5 = getelementptr inbounds nuw %"class.std::_Rb_tree.107", ptr %3, i32 0, i32 0
  call void @_ZNSt8_Rb_treeIjSt4pairIKjN12_GLOBAL__N_17UseInfoIN4llvm11GlobalValueEEEESt10_Select1stIS7_ESt4lessIjESaIS7_EE13_Rb_tree_implISB_Lb1EED2Ev(ptr noundef nonnull align 8 dereferenceable(48) %5) #2
  ret void
}

; Function Attrs: mustprogress nounwind uwtable
define internal void @_ZNSt3mapIPKN4llvm10AllocaInstEN12_GLOBAL__N_17UseInfoINS0_11GlobalValueEEESt4lessIS3_ESaISt4pairIKS3_S7_EEED2Ev(ptr noundef nonnull align 8 dereferenceable(48) %0) unnamed_addr #1 align 2 {
  %2 = alloca ptr, align 8
  store ptr %0, ptr %2, align 8
  %3 = load ptr, ptr %2, align 8
  %4 = getelementptr inbounds nuw %"class.std::map", ptr %3, i32 0, i32 0
  call void @_ZNSt8_Rb_treeIPKN4llvm10AllocaInstESt4pairIKS3_N12_GLOBAL__N_17UseInfoINS0_11GlobalValueEEEESt10_Select1stISA_ESt4lessIS3_ESaISA_EED2Ev(ptr noundef nonnull align 8 dereferenceable(48) %4) #2
  ret void
}

; Function Attrs: mustprogress nounwind uwtable
define internal void @_ZNSt3mapIjN12_GLOBAL__N_17UseInfoIN4llvm11GlobalValueEEESt4lessIjESaISt4pairIKjS4_EEED2Ev(ptr noundef nonnull align 8 dereferenceable(48) %0) unnamed_addr #1 align 2 {
  %2 = alloca ptr, align 8
  store ptr %0, ptr %2, align 8
  %3 = load ptr, ptr %2, align 8
  %4 = getelementptr inbounds nuw %"class.std::map.106", ptr %3, i32 0, i32 0
  call void @_ZNSt8_Rb_treeIjSt4pairIKjN12_GLOBAL__N_17UseInfoIN4llvm11GlobalValueEEEESt10_Select1stIS7_ESt4lessIjESaIS7_EED2Ev(ptr noundef nonnull align 8 dereferenceable(48) %4) #2
  ret void
}

; Function Attrs: mustprogress nounwind uwtable
define internal void @_ZN12_GLOBAL__N_112FunctionInfoIN4llvm11GlobalValueEED2Ev(ptr noundef nonnull align 8 dereferenceable(100) %0) unnamed_addr #1 align 2 {
  %2 = alloca ptr, align 8
  store ptr %0, ptr %2, align 8
  %3 = load ptr, ptr %2, align 8
  %4 = getelementptr inbounds nuw %"struct.(anonymous namespace)::FunctionInfo", ptr %3, i32 0, i32 1
  call void @_ZNSt3mapIjN12_GLOBAL__N_17UseInfoIN4llvm11GlobalValueEEESt4lessIjESaISt4pairIKjS4_EEED2Ev(ptr noundef nonnull align 8 dereferenceable(48) %4) #2
  %5 = getelementptr inbounds nuw %"struct.(anonymous namespace)::FunctionInfo", ptr %3, i32 0, i32 0
  call void @_ZNSt3mapIPKN4llvm10AllocaInstEN12_GLOBAL__N_17UseInfoINS0_11GlobalValueEEESt4lessIS3_ESaISt4pairIKS3_S7_EEED2Ev(ptr noundef nonnull align 8 dereferenceable(48) %5) #2
  ret void
}

; Function Attrs: mustprogress nounwind uwtable
define internal void @_ZNSt4pairIKPKN4llvm11GlobalValueEN12_GLOBAL__N_112FunctionInfoIS1_EEED2Ev(ptr noundef nonnull align 8 dereferenceable(112) %0) unnamed_addr #1 align 2 {
  %2 = alloca ptr, align 8
  store ptr %0, ptr %2, align 8
  %3 = load ptr, ptr %2, align 8
  %4 = getelementptr inbounds nuw %"struct.std::pair.228", ptr %3, i32 0, i32 1
  call void @_ZN12_GLOBAL__N_112FunctionInfoIN4llvm11GlobalValueEED2Ev(ptr noundef nonnull align 8 dereferenceable(100) %4) #2
  ret void
}

; Function Attrs: mustprogress nounwind uwtable
define internal noundef ptr @_ZN9__gnu_cxx16__aligned_membufISt4pairIKPKN4llvm11GlobalValueEN12_GLOBAL__N_112FunctionInfoIS3_EEEE7_M_addrEv(ptr noundef nonnull align 8 dereferenceable(112) %0) #1 align 2 {
  %2 = alloca ptr, align 8
  store ptr %0, ptr %2, align 8
  %3 = load ptr, ptr %2, align 8
  %4 = getelementptr inbounds nuw %"struct.__gnu_cxx::__aligned_membuf.650", ptr %3, i32 0, i32 0
  ret ptr %4
}

; Function Attrs: mustprogress nounwind uwtable
define internal void @_ZNSt15__new_allocatorISt13_Rb_tree_nodeISt4pairIKPKN4llvm11GlobalValueEN12_GLOBAL__N_112FunctionInfoIS3_EEEEE10deallocateEPSB_m(ptr noundef nonnull align 1 dereferenceable(1) %0, ptr noundef %1, i64 noundef %2) #1 align 2 {
  %4 = alloca ptr, align 8
  %5 = alloca ptr, align 8
  %6 = alloca i64, align 8
  store ptr %0, ptr %4, align 8
  store ptr %1, ptr %5, align 8
  store i64 %2, ptr %6, align 8
  %7 = load ptr, ptr %5, align 8
  %8 = load i64, ptr %6, align 8
  %9 = mul i64 %8, 144
  call void @_ZdlPvm(ptr noundef %7, i64 noundef %9) #16
  ret void
}

; Function Attrs: mustprogress nounwind uwtable
define internal void @_ZNSt15__new_allocatorISt13_Rb_tree_nodeISt4pairIKPKN4llvm11GlobalValueEN12_GLOBAL__N_112FunctionInfoIS3_EEEEE7destroyISA_EEvPT_(ptr noundef nonnull align 1 dereferenceable(1) %0, ptr noundef %1) #1 align 2 {
  %3 = alloca ptr, align 8
  %4 = alloca ptr, align 8
  store ptr %0, ptr %3, align 8
  store ptr %1, ptr %4, align 8
  %5 = load ptr, ptr %4, align 8
  call void @_ZNSt4pairIKPKN4llvm11GlobalValueEN12_GLOBAL__N_112FunctionInfoIS1_EEED2Ev(ptr noundef nonnull align 8 dereferenceable(112) %5) #2
  ret void
}

; Function Attrs: mustprogress nounwind uwtable
define internal noundef ptr @_ZN9__gnu_cxx16__aligned_membufISt4pairIKPKN4llvm11GlobalValueEN12_GLOBAL__N_112FunctionInfoIS3_EEEE6_M_ptrEv(ptr noundef nonnull align 8 dereferenceable(112) %0) #1 align 2 {
  %2 = alloca ptr, align 8
  store ptr %0, ptr %2, align 8
  %3 = load ptr, ptr %2, align 8
  %4 = call noundef ptr @_ZN9__gnu_cxx16__aligned_membufISt4pairIKPKN4llvm11GlobalValueEN12_GLOBAL__N_112FunctionInfoIS3_EEEE7_M_addrEv(ptr noundef nonnull align 8 dereferenceable(112) %3) #2
  ret ptr %4
}

; Function Attrs: mustprogress nounwind uwtable
define internal void @_ZNSt16allocator_traitsISaISt13_Rb_tree_nodeISt4pairIKPKN4llvm11GlobalValueEN12_GLOBAL__N_112FunctionInfoIS3_EEEEEE10deallocateERSC_PSB_m(ptr noundef nonnull align 1 dereferenceable(1) %0, ptr noundef %1, i64 noundef %2) #1 align 2 {
  %4 = alloca ptr, align 8
  %5 = alloca ptr, align 8
  %6 = alloca i64, align 8
  store ptr %0, ptr %4, align 8
  store ptr %1, ptr %5, align 8
  store i64 %2, ptr %6, align 8
  %7 = load ptr, ptr %4, align 8
  %8 = load ptr, ptr %5, align 8
  %9 = load i64, ptr %6, align 8
  call void @_ZNSt15__new_allocatorISt13_Rb_tree_nodeISt4pairIKPKN4llvm11GlobalValueEN12_GLOBAL__N_112FunctionInfoIS3_EEEEE10deallocateEPSB_m(ptr noundef nonnull align 1 dereferenceable(1) %7, ptr noundef %8, i64 noundef %9)
  ret void
}

; Function Attrs: mustprogress nounwind uwtable
define internal void @_ZNSt16allocator_traitsISaISt13_Rb_tree_nodeISt4pairIKPKN4llvm11GlobalValueEN12_GLOBAL__N_112FunctionInfoIS3_EEEEEE7destroyISA_EEvRSC_PT_(ptr noundef nonnull align 1 dereferenceable(1) %0, ptr noundef %1) #1 align 2 {
  %3 = alloca ptr, align 8
  %4 = alloca ptr, align 8
  store ptr %0, ptr %3, align 8
  store ptr %1, ptr %4, align 8
  %5 = load ptr, ptr %3, align 8
  %6 = load ptr, ptr %4, align 8
  call void @_ZNSt15__new_allocatorISt13_Rb_tree_nodeISt4pairIKPKN4llvm11GlobalValueEN12_GLOBAL__N_112FunctionInfoIS3_EEEEE7destroyISA_EEvPT_(ptr noundef nonnull align 1 dereferenceable(1) %5, ptr noundef %6) #2
  ret void
}

; Function Attrs: mustprogress nounwind uwtable
define internal noundef ptr @_ZNSt13_Rb_tree_nodeISt4pairIKPKN4llvm11GlobalValueEN12_GLOBAL__N_112FunctionInfoIS2_EEEE9_M_valptrEv(ptr noundef nonnull align 8 dereferenceable(144) %0) #1 align 2 {
  %2 = alloca ptr, align 8
  store ptr %0, ptr %2, align 8
  %3 = load ptr, ptr %2, align 8
  %4 = getelementptr inbounds nuw %"struct.std::_Rb_tree_node.649", ptr %3, i32 0, i32 1
  %5 = call noundef ptr @_ZN9__gnu_cxx16__aligned_membufISt4pairIKPKN4llvm11GlobalValueEN12_GLOBAL__N_112FunctionInfoIS3_EEEE6_M_ptrEv(ptr noundef nonnull align 8 dereferenceable(112) %4) #2
  ret ptr %5
}

; Function Attrs: mustprogress nounwind uwtable
define internal noundef nonnull align 1 dereferenceable(1) ptr @_ZNSt8_Rb_treeIPKN4llvm11GlobalValueESt4pairIKS3_N12_GLOBAL__N_112FunctionInfoIS1_EEESt10_Select1stIS9_ESt4lessIS3_ESaIS9_EE21_M_get_Node_allocatorEv(ptr noundef nonnull align 8 dereferenceable(48) %0) #1 align 2 {
  %2 = alloca ptr, align 8
  store ptr %0, ptr %2, align 8
  %3 = load ptr, ptr %2, align 8
  %4 = getelementptr inbounds nuw %"class.std::_Rb_tree.124", ptr %3, i32 0, i32 0
  ret ptr %4
}

; Function Attrs: mustprogress nounwind uwtable
define internal void @_ZNSt8_Rb_treeIPKN4llvm11GlobalValueESt4pairIKS3_N12_GLOBAL__N_112FunctionInfoIS1_EEESt10_Select1stIS9_ESt4lessIS3_ESaIS9_EE11_M_put_nodeEPSt13_Rb_tree_nodeIS9_E(ptr noundef nonnull align 8 dereferenceable(48) %0, ptr noundef %1) #1 align 2 {
  %3 = alloca ptr, align 8
  %4 = alloca ptr, align 8
  store ptr %0, ptr %3, align 8
  store ptr %1, ptr %4, align 8
  %5 = load ptr, ptr %3, align 8
  %6 = call noundef nonnull align 1 dereferenceable(1) ptr @_ZNSt8_Rb_treeIPKN4llvm11GlobalValueESt4pairIKS3_N12_GLOBAL__N_112FunctionInfoIS1_EEESt10_Select1stIS9_ESt4lessIS3_ESaIS9_EE21_M_get_Node_allocatorEv(ptr noundef nonnull align 8 dereferenceable(48) %5) #2
  %7 = load ptr, ptr %4, align 8
  call void @_ZNSt16allocator_traitsISaISt13_Rb_tree_nodeISt4pairIKPKN4llvm11GlobalValueEN12_GLOBAL__N_112FunctionInfoIS3_EEEEEE10deallocateERSC_PSB_m(ptr noundef nonnull align 1 dereferenceable(1) %6, ptr noundef %7, i64 noundef 1)
  ret void
}

; Function Attrs: mustprogress nounwind uwtable
define internal void @_ZNSt8_Rb_treeIPKN4llvm11GlobalValueESt4pairIKS3_N12_GLOBAL__N_112FunctionInfoIS1_EEESt10_Select1stIS9_ESt4lessIS3_ESaIS9_EE15_M_destroy_nodeEPSt13_Rb_tree_nodeIS9_E(ptr noundef nonnull align 8 dereferenceable(48) %0, ptr noundef %1) #1 align 2 {
  %3 = alloca ptr, align 8
  %4 = alloca ptr, align 8
  store ptr %0, ptr %3, align 8
  store ptr %1, ptr %4, align 8
  %5 = load ptr, ptr %3, align 8
  %6 = call noundef nonnull align 1 dereferenceable(1) ptr @_ZNSt8_Rb_treeIPKN4llvm11GlobalValueESt4pairIKS3_N12_GLOBAL__N_112FunctionInfoIS1_EEESt10_Select1stIS9_ESt4lessIS3_ESaIS9_EE21_M_get_Node_allocatorEv(ptr noundef nonnull align 8 dereferenceable(48) %5) #2
  %7 = load ptr, ptr %4, align 8
  %8 = call noundef ptr @_ZNSt13_Rb_tree_nodeISt4pairIKPKN4llvm11GlobalValueEN12_GLOBAL__N_112FunctionInfoIS2_EEEE9_M_valptrEv(ptr noundef nonnull align 8 dereferenceable(144) %7)
  call void @_ZNSt16allocator_traitsISaISt13_Rb_tree_nodeISt4pairIKPKN4llvm11GlobalValueEN12_GLOBAL__N_112FunctionInfoIS3_EEEEEE7destroyISA_EEvRSC_PT_(ptr noundef nonnull align 1 dereferenceable(1) %6, ptr noundef %8) #2
  ret void
}

; Function Attrs: mustprogress nounwind uwtable
define internal void @_ZNSt8_Rb_treeIPKN4llvm11GlobalValueESt4pairIKS3_N12_GLOBAL__N_112FunctionInfoIS1_EEESt10_Select1stIS9_ESt4lessIS3_ESaIS9_EE12_M_drop_nodeEPSt13_Rb_tree_nodeIS9_E(ptr noundef nonnull align 8 dereferenceable(48) %0, ptr noundef %1) #1 align 2 {
  %3 = alloca ptr, align 8
  %4 = alloca ptr, align 8
  store ptr %0, ptr %3, align 8
  store ptr %1, ptr %4, align 8
  %5 = load ptr, ptr %3, align 8
  %6 = load ptr, ptr %4, align 8
  call void @_ZNSt8_Rb_treeIPKN4llvm11GlobalValueESt4pairIKS3_N12_GLOBAL__N_112FunctionInfoIS1_EEESt10_Select1stIS9_ESt4lessIS3_ESaIS9_EE15_M_destroy_nodeEPSt13_Rb_tree_nodeIS9_E(ptr noundef nonnull align 8 dereferenceable(48) %5, ptr noundef %6) #2
  %7 = load ptr, ptr %4, align 8
  call void @_ZNSt8_Rb_treeIPKN4llvm11GlobalValueESt4pairIKS3_N12_GLOBAL__N_112FunctionInfoIS1_EEESt10_Select1stIS9_ESt4lessIS3_ESaIS9_EE11_M_put_nodeEPSt13_Rb_tree_nodeIS9_E(ptr noundef nonnull align 8 dereferenceable(48) %5, ptr noundef %7) #2
  ret void
}

; Function Attrs: mustprogress nounwind uwtable
define internal noundef ptr @_ZNSt8_Rb_treeIPKN4llvm11GlobalValueESt4pairIKS3_N12_GLOBAL__N_112FunctionInfoIS1_EEESt10_Select1stIS9_ESt4lessIS3_ESaIS9_EE7_S_leftEPSt18_Rb_tree_node_base(ptr noundef %0) #1 align 2 {
  %2 = alloca ptr, align 8
  store ptr %0, ptr %2, align 8
  %3 = load ptr, ptr %2, align 8
  %4 = getelementptr inbounds nuw %"struct.std::_Rb_tree_node_base", ptr %3, i32 0, i32 2
  %5 = load ptr, ptr %4, align 8
  ret ptr %5
}

; Function Attrs: mustprogress nounwind uwtable
define internal noundef ptr @_ZNSt8_Rb_treeIPKN4llvm11GlobalValueESt4pairIKS3_N12_GLOBAL__N_112FunctionInfoIS1_EEESt10_Select1stIS9_ESt4lessIS3_ESaIS9_EE8_S_rightEPSt18_Rb_tree_node_base(ptr noundef %0) #1 align 2 {
  %2 = alloca ptr, align 8
  store ptr %0, ptr %2, align 8
  %3 = load ptr, ptr %2, align 8
  %4 = getelementptr inbounds nuw %"struct.std::_Rb_tree_node_base", ptr %3, i32 0, i32 3
  %5 = load ptr, ptr %4, align 8
  ret ptr %5
}

; Function Attrs: mustprogress nounwind uwtable
define internal void @_ZNSt8_Rb_treeIPKN4llvm11GlobalValueESt4pairIKS3_N12_GLOBAL__N_112FunctionInfoIS1_EEESt10_Select1stIS9_ESt4lessIS3_ESaIS9_EE8_M_eraseEPSt13_Rb_tree_nodeIS9_E(ptr noundef nonnull align 8 dereferenceable(48) %0, ptr noundef %1) #1 align 2 {
  %3 = alloca ptr, align 8
  %4 = alloca ptr, align 8
  %5 = alloca ptr, align 8
  store ptr %0, ptr %3, align 8
  store ptr %1, ptr %4, align 8
  %6 = load ptr, ptr %3, align 8
  br label %7

7:                                                ; preds = %10, %2
  %8 = load ptr, ptr %4, align 8
  %9 = icmp ne ptr %8, null
  br i1 %9, label %10, label %17

10:                                               ; preds = %7
  %11 = load ptr, ptr %4, align 8
  %12 = call noundef ptr @_ZNSt8_Rb_treeIPKN4llvm11GlobalValueESt4pairIKS3_N12_GLOBAL__N_112FunctionInfoIS1_EEESt10_Select1stIS9_ESt4lessIS3_ESaIS9_EE8_S_rightEPSt18_Rb_tree_node_base(ptr noundef %11) #2
  call void @_ZNSt8_Rb_treeIPKN4llvm11GlobalValueESt4pairIKS3_N12_GLOBAL__N_112FunctionInfoIS1_EEESt10_Select1stIS9_ESt4lessIS3_ESaIS9_EE8_M_eraseEPSt13_Rb_tree_nodeIS9_E(ptr noundef nonnull align 8 dereferenceable(48) %6, ptr noundef %12)
  %13 = load ptr, ptr %4, align 8
  %14 = call noundef ptr @_ZNSt8_Rb_treeIPKN4llvm11GlobalValueESt4pairIKS3_N12_GLOBAL__N_112FunctionInfoIS1_EEESt10_Select1stIS9_ESt4lessIS3_ESaIS9_EE7_S_leftEPSt18_Rb_tree_node_base(ptr noundef %13) #2
  store ptr %14, ptr %5, align 8
  %15 = load ptr, ptr %4, align 8
  call void @_ZNSt8_Rb_treeIPKN4llvm11GlobalValueESt4pairIKS3_N12_GLOBAL__N_112FunctionInfoIS1_EEESt10_Select1stIS9_ESt4lessIS3_ESaIS9_EE12_M_drop_nodeEPSt13_Rb_tree_nodeIS9_E(ptr noundef nonnull align 8 dereferenceable(48) %6, ptr noundef %15) #2
  %16 = load ptr, ptr %5, align 8
  store ptr %16, ptr %4, align 8
  br label %7, !llvm.loop !55

17:                                               ; preds = %7
  ret void
}